target datalayout = "e-m:e-p270:32:32-p271:32:32-p272:64:64-i64:64-i128:128-f80:128-n8:16:32:64-S128"
target triple = "x86_64-unknown-linux-gnu"

%"class.std::__cxx11::basic_string" = type { %"struct.std::__cxx11::basic_string<char>::_Alloc_hider", i64, %union.anon }
%"struct.std::__cxx11::basic_string<char>::_Alloc_hider" = type { ptr }
%union.anon = type { i64, [8 x i8] }
%"class.llvh::sys::fs::TempFile" = type <{ i8, [7 x i8], %"class.std::__cxx11::basic_string", i32, [4 x i8] }>

; Function Attrs: mustprogress nounwind uwtable
define hidden noundef nonnull align 8 dereferenceable(44) ptr @_ZN4llvh3sys2fs8TempFileaSEOS2_(ptr noundef nonnull align 8 dereferenceable(44) %this, ptr noundef nonnull align 8 dereferenceable(44) %Other) #0 align 2 {
entry:
  %this.addr = alloca ptr, align 8
  %Other.addr = alloca ptr, align 8
  store ptr %this, ptr %this.addr, align 8
  store ptr %Other, ptr %Other.addr, align 8
  %this1 = load ptr, ptr %this.addr, align 8
  %0 = load ptr, ptr %Other.addr, align 8
  %TmpName = getelementptr inbounds %"class.llvh::sys::fs::TempFile", ptr %0, i32 0, i32 2
  %TmpName2 = getelementptr inbounds %"class.llvh::sys::fs::TempFile", ptr %this1, i32 0, i32 2
  %call = call noundef nonnull align 8 dereferenceable(32) ptr @_ZNSt7__cxx1112basic_stringIcSt11char_traitsIcESaIcEEaSEOS4_(ptr noundef nonnull align 8 dereferenceable(32) %TmpName2, ptr noundef nonnull align 8 dereferenceable(32) %TmpName) #9
  %1 = load ptr, ptr %Other.addr, align 8
  %FD = getelementptr inbounds %"class.llvh::sys::fs::TempFile", ptr %1, i32 0, i32 3
  %2 = load i32, ptr %FD, align 8
  %FD3 = getelementptr inbounds %"class.llvh::sys::fs::TempFile", ptr %this1, i32 0, i32 3
  store i32 %2, ptr %FD3, align 8
  %3 = load ptr, ptr %Other.addr, align 8
  %Done = getelementptr inbounds %"class.llvh::sys::fs::TempFile", ptr %3, i32 0, i32 0
  store i8 1, ptr %Done, align 8
  ret ptr %this1
}