; Function Attrs: mustprogress nounwind uwtable
define hidden noundef nonnull align 8 dereferenceable(44) ptr @_ZN4llvh3sys2fs8TempFileaSEOS2_(ptr noundef nonnull returned align 8 dereferenceable(44) %this, ptr noundef nonnull align 8 dereferenceable(44) %Other) local_unnamed_addr #0 align 2 {
entry:
  %TmpName = getelementptr inbounds i8, ptr %Other, i64 8
  %TmpName2 = getelementptr inbounds i8, ptr %this, i64 8
  %call = tail call noundef nonnull align 8 dereferenceable(32) ptr @_ZNSt7__cxx1112basic_stringIcSt11char_traitsIcESaIcEEaSEOS4_(ptr noundef nonnull align 8 dereferenceable(32) %TmpName2, ptr noundef nonnull align 8 dereferenceable(32) %TmpName) #29
  %FD = getelementptr inbounds i8, ptr %Other, i64 40
  %0 = load i32, ptr %FD, align 8
  %FD3 = getelementptr inbounds i8, ptr %this, i64 40
  store i32 %0, ptr %FD3, align 8
  store i8 1, ptr %Other, align 8
  ret ptr %this
}